(cnumpy.core.multiarray
_reconstruct
p0
(cnumpy
ndarray
p1
(I0
tp2
S'b'
p3
tp4
Rp5
(I1
(L1L
tp6
cnumpy
dtype
p7
(S'f8'
p8
I0
I1
tp9
Rp10
(I3
S'<'
p11
NNNI-1
I-1
I0
tp12
bI00
S'9\xb4\xc8v\xbe\x9f\x14\xc0'
p13
tp14
bg0
(g1
(I0
tp15
g3
tp16
Rp17
(I1
(L1L
tp18
g10
I00
S'O\x8d\x97n\x12\x03\x17\xc0'
p19
tp20
bg0
(g1
(I0
tp21
g3
tp22
Rp23
(I1
(L1L
tp24
g10
I00
S'\xbaI\x0c\x02+\x87\xc6?'
p25
tp26
bg0
(g1
(I0
tp27
g3
tp28
Rp29
(I1
(L1L
tp30
g10
I00
S'Y.h\xfb\x86\xc5\xca?'
p31
tp32
btp33
.