(cnumpy.core.multiarray
_reconstruct
p0
(cnumpy
ndarray
p1
(I0
tp2
S'b'
p3
tp4
Rp5
(I1
(L0L
tp6
cnumpy
dtype
p7
(S'f8'
p8
I0
I1
tp9
Rp10
(I3
S'<'
p11
NNNI-1
I-1
I0
tp12
bI00
S''
p13
tp14
bg0
(g1
(I0
tp15
g3
tp16
Rp17
(I1
(L0L
tp18
g10
I00
g13
tp19
bg0
(g1
(I0
tp20
g3
tp21
Rp22
(I1
(L0L
tp23
g10
I00
g13
tp24
bg0
(g1
(I0
tp25
g3
tp26
Rp27
(I1
(L0L
tp28
g10
I00
g13
tp29
bg0
(g1
(I0
tp30
g3
tp31
Rp32
(I1
(L0L
tp33
g10
I00
g13
tp34
bg0
(g1
(I0
tp35
g3
tp36
Rp37
(I1
(L0L
tp38
g10
I00
g13
tp39
bg0
(g1
(I0
tp40
g3
tp41
Rp42
(I1
(L0L
tp43
g10
I00
g13
tp44
bg0
(g1
(I0
tp45
g3
tp46
Rp47
(I1
(L0L
tp48
g10
I00
g13
tp49
bg0
(g1
(I0
tp50
g3
tp51
Rp52
(I1
(L0L
tp53
g10
I00
g13
tp54
bg0
(g1
(I0
tp55
g3
tp56
Rp57
(I1
(L0L
tp58
g10
I00
g13
tp59
btp60
.